target datalayout = "e-m:e-p270:32:32-p271:32:32-p272:64:64-i64:64-i128:128-f80:128-n8:16:32:64-S128"
target triple = "x86_64-pc-linux-gnu"

%struct.asn1_pctx_st = type { i64, i64, i64, i64, i64 }
%struct.ASN1_ITEM_st = type { i8, i64, ptr, i64, ptr, i64, ptr }
%struct.ASN1_TEMPLATE_st = type { i64, i64, i64, ptr, ptr }

@.str.2 = private unnamed_addr constant [1 x i8] zeroinitializer, align 1
@.str.3 = private unnamed_addr constant [2 x i8] c"\0A\00", align 1
@.str.7 = private unnamed_addr constant [6 x i8] c"%*s}\0A\00", align 1
@.str.11 = private unnamed_addr constant [4 x i8] c"SET\00", align 1
@.str.12 = private unnamed_addr constant [9 x i8] c"SEQUENCE\00", align 1
@.str.13 = private unnamed_addr constant [15 x i8] c"%*s%s OF %s {\0A\00", align 1
@.str.14 = private unnamed_addr constant [8 x i8] c"%*s%s:\0A\00", align 1
@.str.15 = private unnamed_addr constant [9 x i8] c"%*s<%s>\0A\00", align 1
@.str.16 = private unnamed_addr constant [7 x i8] c"ABSENT\00", align 1
@.str.17 = private unnamed_addr constant [6 x i8] c"EMPTY\00", align 1

; Function Attrs: inlinehint nounwind uwtable
define internal ptr @sk_const_ASN1_VALUE_value(ptr noundef %0, i32 noundef %1) #3 {
  %3 = alloca ptr, align 8
  %4 = alloca i32, align 4
  store ptr %0, ptr %3, align 8, !tbaa !59
  store i32 %1, ptr %4, align 4, !tbaa !20
  %5 = load ptr, ptr %3, align 8, !tbaa !59
  %6 = load i32, ptr %4, align 4, !tbaa !20
  %7 = call ptr @OPENSSL_sk_value(ptr noundef %5, i32 noundef %6)
  ret ptr %7
}

; Function Attrs: inlinehint nounwind uwtable
define internal i32 @sk_const_ASN1_VALUE_num(ptr noundef %0) #3 {
  %2 = alloca ptr, align 8
  store ptr %0, ptr %2, align 8, !tbaa !59
  %3 = load ptr, ptr %2, align 8, !tbaa !59
  %4 = call i32 @OPENSSL_sk_num(ptr noundef %3)
  ret i32 %4
}

; Function Attrs: nounwind uwtable
define internal i32 @asn1_template_print_ctx(ptr noundef %0, ptr noundef %1, i32 noundef %2, ptr noundef %3, ptr noundef %4) #0 {
  %6 = alloca i32, align 4
  %7 = alloca ptr, align 8
  %8 = alloca ptr, align 8
  %9 = alloca i32, align 4
  %10 = alloca ptr, align 8
  %11 = alloca ptr, align 8
  %12 = alloca i32, align 4
  %13 = alloca i32, align 4
  %14 = alloca ptr, align 8
  %15 = alloca ptr, align 8
  %16 = alloca ptr, align 8
  %17 = alloca ptr, align 8
  %18 = alloca ptr, align 8
  %19 = alloca ptr, align 8
  %20 = alloca i32, align 4
  store ptr %0, ptr %7, align 8, !tbaa !16
  store ptr %1, ptr %8, align 8, !tbaa !29
  store i32 %2, ptr %9, align 4, !tbaa !20
  store ptr %3, ptr %10, align 8, !tbaa !51
  store ptr %4, ptr %11, align 8, !tbaa !3
  call void @llvm.lifetime.start.p0(i64 4, ptr %12) #4
  call void @llvm.lifetime.start.p0(i64 4, ptr %13) #4
  call void @llvm.lifetime.start.p0(i64 8, ptr %14) #4
  call void @llvm.lifetime.start.p0(i64 8, ptr %15) #4
  call void @llvm.lifetime.start.p0(i64 8, ptr %16) #4
  %21 = load ptr, ptr %10, align 8, !tbaa !51
  %22 = getelementptr inbounds nuw %struct.ASN1_TEMPLATE_st, ptr %21, i32 0, i32 0
  %23 = load i64, ptr %22, align 8, !tbaa !55
  %24 = trunc i64 %23 to i32
  store i32 %24, ptr %13, align 4, !tbaa !20
  %25 = load ptr, ptr %11, align 8, !tbaa !3
  %26 = getelementptr inbounds nuw %struct.asn1_pctx_st, ptr %25, i32 0, i32 0
  %27 = load i64, ptr %26, align 8, !tbaa !8
  %28 = and i64 %27, 128
  %29 = icmp ne i64 %28, 0
  br i1 %29, label %30, label %37

30:                                               ; preds = %5
  %31 = load ptr, ptr %10, align 8, !tbaa !51
  %32 = getelementptr inbounds nuw %struct.ASN1_TEMPLATE_st, ptr %31, i32 0, i32 4
  %33 = load ptr, ptr %32, align 8, !tbaa !57
  %34 = call ptr %33()
  %35 = getelementptr inbounds nuw %struct.ASN1_ITEM_st, ptr %34, i32 0, i32 6
  %36 = load ptr, ptr %35, align 8, !tbaa !26
  store ptr %36, ptr %14, align 8, !tbaa !24
  br label %38

37:                                               ; preds = %5
  store ptr null, ptr %14, align 8, !tbaa !24
  br label %38

38:                                               ; preds = %37, %30
  %39 = load ptr, ptr %11, align 8, !tbaa !3
  %40 = getelementptr inbounds nuw %struct.asn1_pctx_st, ptr %39, i32 0, i32 0
  %41 = load i64, ptr %40, align 8, !tbaa !8
  %42 = and i64 %41, 64
  %43 = icmp ne i64 %42, 0
  br i1 %43, label %44, label %45

44:                                               ; preds = %38
  store ptr null, ptr %15, align 8, !tbaa !24
  br label %49

45:                                               ; preds = %38
  %46 = load ptr, ptr %10, align 8, !tbaa !51
  %47 = getelementptr inbounds nuw %struct.ASN1_TEMPLATE_st, ptr %46, i32 0, i32 3
  %48 = load ptr, ptr %47, align 8, !tbaa !58
  store ptr %48, ptr %15, align 8, !tbaa !24
  br label %49

49:                                               ; preds = %45, %44
  %50 = load i32, ptr %13, align 4, !tbaa !20
  %51 = and i32 %50, 4096
  %52 = icmp ne i32 %51, 0
  br i1 %52, label %53, label %55

53:                                               ; preds = %49
  %54 = load ptr, ptr %8, align 8, !tbaa !29
  store ptr %54, ptr %16, align 8, !tbaa !18
  store ptr %16, ptr %8, align 8, !tbaa !29
  br label %55

55:                                               ; preds = %53, %49
  %56 = load i32, ptr %13, align 4, !tbaa !20
  %57 = and i32 %56, 6
  %58 = icmp ne i32 %57, 0
  br i1 %58, label %59, label %157

59:                                               ; preds = %55
  call void @llvm.lifetime.start.p0(i64 8, ptr %17) #4
  call void @llvm.lifetime.start.p0(i64 8, ptr %18) #4
  call void @llvm.lifetime.start.p0(i64 8, ptr %19) #4
  %60 = load ptr, ptr %15, align 8, !tbaa !24
  %61 = icmp ne ptr %60, null
  br i1 %61, label %62, label %94

62:                                               ; preds = %59
  %63 = load ptr, ptr %11, align 8, !tbaa !3
  %64 = getelementptr inbounds nuw %struct.asn1_pctx_st, ptr %63, i32 0, i32 0
  %65 = load i64, ptr %64, align 8, !tbaa !8
  %66 = and i64 %65, 4
  %67 = icmp ne i64 %66, 0
  br i1 %67, label %68, label %85

68:                                               ; preds = %62
  %69 = load i32, ptr %13, align 4, !tbaa !20
  %70 = and i32 %69, 2
  %71 = icmp ne i32 %70, 0
  br i1 %71, label %72, label %73

72:                                               ; preds = %68
  store ptr @.str.11, ptr %17, align 8, !tbaa !24
  br label %74

73:                                               ; preds = %68
  store ptr @.str.12, ptr %17, align 8, !tbaa !24
  br label %74

74:                                               ; preds = %73, %72
  %75 = load ptr, ptr %7, align 8, !tbaa !16
  %76 = load i32, ptr %9, align 4, !tbaa !20
  %77 = load ptr, ptr %17, align 8, !tbaa !24
  %78 = load ptr, ptr %10, align 8, !tbaa !51
  %79 = getelementptr inbounds nuw %struct.ASN1_TEMPLATE_st, ptr %78, i32 0, i32 3
  %80 = load ptr, ptr %79, align 8, !tbaa !58
  %81 = call i32 (ptr, ptr, ...) @BIO_printf(ptr noundef %75, ptr noundef @.str.13, i32 noundef %76, ptr noundef @.str.2, ptr noundef %77, ptr noundef %80)
  %82 = icmp sle i32 %81, 0
  br i1 %82, label %83, label %84

83:                                               ; preds = %74
  store i32 0, ptr %6, align 4
  store i32 1, ptr %20, align 4
  br label %156

84:                                               ; preds = %74
  br label %93

85:                                               ; preds = %62
  %86 = load ptr, ptr %7, align 8, !tbaa !16
  %87 = load i32, ptr %9, align 4, !tbaa !20
  %88 = load ptr, ptr %15, align 8, !tbaa !24
  %89 = call i32 (ptr, ptr, ...) @BIO_printf(ptr noundef %86, ptr noundef @.str.14, i32 noundef %87, ptr noundef @.str.2, ptr noundef %88)
  %90 = icmp sle i32 %89, 0
  br i1 %90, label %91, label %92

91:                                               ; preds = %85
  store i32 0, ptr %6, align 4
  store i32 1, ptr %20, align 4
  br label %156

92:                                               ; preds = %85
  br label %93

93:                                               ; preds = %92, %84
  br label %94

94:                                               ; preds = %93, %59
  %95 = load ptr, ptr %8, align 8, !tbaa !29
  %96 = load ptr, ptr %95, align 8, !tbaa !18
  store ptr %96, ptr %19, align 8, !tbaa !59
  store i32 0, ptr %12, align 4, !tbaa !20
  br label %97

97:                                               ; preds = %126, %94
  %98 = load i32, ptr %12, align 4, !tbaa !20
  %99 = load ptr, ptr %19, align 8, !tbaa !59
  %100 = call i32 @sk_const_ASN1_VALUE_num(ptr noundef %99)
  %101 = icmp slt i32 %98, %100
  br i1 %101, label %102, label %129

102:                                              ; preds = %97
  %103 = load i32, ptr %12, align 4, !tbaa !20
  %104 = icmp sgt i32 %103, 0
  br i1 %104, label %105, label %110

105:                                              ; preds = %102
  %106 = load ptr, ptr %7, align 8, !tbaa !16
  %107 = call i32 @BIO_puts(ptr noundef %106, ptr noundef @.str.3)
  %108 = icmp sle i32 %107, 0
  br i1 %108, label %109, label %110

109:                                              ; preds = %105
  store i32 0, ptr %6, align 4
  store i32 1, ptr %20, align 4
  br label %156

110:                                              ; preds = %105, %102
  %111 = load ptr, ptr %19, align 8, !tbaa !59
  %112 = load i32, ptr %12, align 4, !tbaa !20
  %113 = call ptr @sk_const_ASN1_VALUE_value(ptr noundef %111, i32 noundef %112)
  store ptr %113, ptr %18, align 8, !tbaa !18
  %114 = load ptr, ptr %7, align 8, !tbaa !16
  %115 = load i32, ptr %9, align 4, !tbaa !20
  %116 = add nsw i32 %115, 2
  %117 = load ptr, ptr %10, align 8, !tbaa !51
  %118 = getelementptr inbounds nuw %struct.ASN1_TEMPLATE_st, ptr %117, i32 0, i32 4
  %119 = load ptr, ptr %118, align 8, !tbaa !57
  %120 = call ptr %119()
  %121 = load ptr, ptr %11, align 8, !tbaa !3
  %122 = call i32 @asn1_item_print_ctx(ptr noundef %114, ptr noundef %18, i32 noundef %116, ptr noundef %120, ptr noundef null, ptr noundef null, i32 noundef 1, ptr noundef %121)
  %123 = icmp ne i32 %122, 0
  br i1 %123, label %125, label %124

124:                                              ; preds = %110
  store i32 0, ptr %6, align 4
  store i32 1, ptr %20, align 4
  br label %156

125:                                              ; preds = %110
  br label %126

126:                                              ; preds = %125
  %127 = load i32, ptr %12, align 4, !tbaa !20
  %128 = add nsw i32 %127, 1
  store i32 %128, ptr %12, align 4, !tbaa !20
  br label %97, !llvm.loop !61

129:                                              ; preds = %97
  %130 = load i32, ptr %12, align 4, !tbaa !20
  %131 = icmp eq i32 %130, 0
  br i1 %131, label %132, label %142

132:                                              ; preds = %129
  %133 = load ptr, ptr %7, align 8, !tbaa !16
  %134 = load i32, ptr %9, align 4, !tbaa !20
  %135 = add nsw i32 %134, 2
  %136 = load ptr, ptr %19, align 8, !tbaa !59
  %137 = icmp eq ptr %136, null
  %138 = select i1 %137, ptr @.str.16, ptr @.str.17
  %139 = call i32 (ptr, ptr, ...) @BIO_printf(ptr noundef %133, ptr noundef @.str.15, i32 noundef %135, ptr noundef @.str.2, ptr noundef %138)
  %140 = icmp sle i32 %139, 0
  br i1 %140, label %141, label %142

141:                                              ; preds = %132
  store i32 0, ptr %6, align 4
  store i32 1, ptr %20, align 4
  br label %156

142:                                              ; preds = %132, %129
  %143 = load ptr, ptr %11, align 8, !tbaa !3
  %144 = getelementptr inbounds nuw %struct.asn1_pctx_st, ptr %143, i32 0, i32 0
  %145 = load i64, ptr %144, align 8, !tbaa !8
  %146 = and i64 %145, 2
  %147 = icmp ne i64 %146, 0
  br i1 %147, label %148, label %155

148:                                              ; preds = %142
  %149 = load ptr, ptr %7, align 8, !tbaa !16
  %150 = load i32, ptr %9, align 4, !tbaa !20
  %151 = call i32 (ptr, ptr, ...) @BIO_printf(ptr noundef %149, ptr noundef @.str.7, i32 noundef %150, ptr noundef @.str.2)
  %152 = icmp sle i32 %151, 0
  br i1 %152, label %153, label %154

153:                                              ; preds = %148
  store i32 0, ptr %6, align 4
  store i32 1, ptr %20, align 4
  br label %156

154:                                              ; preds = %148
  br label %155

155:                                              ; preds = %154, %142
  store i32 1, ptr %6, align 4
  store i32 1, ptr %20, align 4
  br label %156

156:                                              ; preds = %155, %153, %141, %124, %109, %91, %83
  call void @llvm.lifetime.end.p0(i64 8, ptr %19) #4
  call void @llvm.lifetime.end.p0(i64 8, ptr %18) #4
  call void @llvm.lifetime.end.p0(i64 8, ptr %17) #4
  br label %169

157:                                              ; preds = %55
  %158 = load ptr, ptr %7, align 8, !tbaa !16
  %159 = load ptr, ptr %8, align 8, !tbaa !29
  %160 = load i32, ptr %9, align 4, !tbaa !20
  %161 = load ptr, ptr %10, align 8, !tbaa !51
  %162 = getelementptr inbounds nuw %struct.ASN1_TEMPLATE_st, ptr %161, i32 0, i32 4
  %163 = load ptr, ptr %162, align 8, !tbaa !57
  %164 = call ptr %163()
  %165 = load ptr, ptr %15, align 8, !tbaa !24
  %166 = load ptr, ptr %14, align 8, !tbaa !24
  %167 = load ptr, ptr %11, align 8, !tbaa !3
  %168 = call i32 @asn1_item_print_ctx(ptr noundef %158, ptr noundef %159, i32 noundef %160, ptr noundef %164, ptr noundef %165, ptr noundef %166, i32 noundef 0, ptr noundef %167)
  store i32 %168, ptr %6, align 4
  store i32 1, ptr %20, align 4
  br label %169

169:                                              ; preds = %157, %156
  call void @llvm.lifetime.end.p0(i64 8, ptr %16) #4
  call void @llvm.lifetime.end.p0(i64 8, ptr %15) #4
  call void @llvm.lifetime.end.p0(i64 8, ptr %14) #4
  call void @llvm.lifetime.end.p0(i64 4, ptr %13) #4
  call void @llvm.lifetime.end.p0(i64 4, ptr %12) #4
  %170 = load i32, ptr %6, align 4
  ret i32 %170
}