; Function Attrs: nounwind uwtable
define internal fastcc range(i32 0, 2) i32 @asn1_template_print_ctx(ptr noundef %0, ptr noundef %1, i32 noundef %2, ptr noundef readonly captures(none) %3, ptr noundef %4) unnamed_addr #0 {
  %6 = alloca ptr, align 8
  %7 = alloca ptr, align 8
  call void @llvm.lifetime.start.p0(i64 8, ptr nonnull %6) #5
  %8 = load i64, ptr %3, align 8, !tbaa !49
  %9 = trunc i64 %8 to i32
  %10 = load i64, ptr %4, align 8, !tbaa !3
  %11 = and i64 %10, 128
  %.not = icmp eq i64 %11, 0
  br i1 %.not, label %18, label %12

12:                                               ; preds = %5
  %13 = getelementptr inbounds nuw i8, ptr %3, i64 32
  %14 = load ptr, ptr %13, align 8, !tbaa !51
  %15 = tail call ptr %14() #5
  %16 = getelementptr inbounds nuw i8, ptr %15, i64 48
  %17 = load ptr, ptr %16, align 8, !tbaa !15
  %.pre = load i64, ptr %4, align 8, !tbaa !3
  br label %18

18:                                               ; preds = %5, %12
  %19 = phi i64 [ %.pre, %12 ], [ %10, %5 ]
  %.046 = phi ptr [ %17, %12 ], [ null, %5 ]
  %20 = and i64 %19, 64
  %.not49 = icmp eq i64 %20, 0
  br i1 %.not49, label %21, label %24

21:                                               ; preds = %18
  %22 = getelementptr inbounds nuw i8, ptr %3, i64 24
  %23 = load ptr, ptr %22, align 8, !tbaa !52
  br label %24

24:                                               ; preds = %18, %21
  %.045 = phi ptr [ %23, %21 ], [ null, %18 ]
  %25 = and i32 %9, 4096
  %.not50 = icmp eq i32 %25, 0
  br i1 %.not50, label %27, label %26

26:                                               ; preds = %24
  store ptr %1, ptr %6, align 8, !tbaa !12
  br label %27

27:                                               ; preds = %26, %24
  %.047 = phi ptr [ %6, %26 ], [ %1, %24 ]
  %28 = and i32 %9, 6
  %.not51 = icmp eq i32 %28, 0
  br i1 %.not51, label %70, label %29

29:                                               ; preds = %27
  call void @llvm.lifetime.start.p0(i64 8, ptr nonnull %7) #5
  %.not52 = icmp eq ptr %.045, null
  br i1 %.not52, label %41, label %30

30:                                               ; preds = %29
  %31 = and i64 %19, 4
  %.not53 = icmp eq i64 %31, 0
  br i1 %.not53, label %38, label %32

32:                                               ; preds = %30
  %33 = and i32 %9, 2
  %.not54 = icmp eq i32 %33, 0
  %.str.12..str.11 = select i1 %.not54, ptr @.str.12, ptr @.str.11
  %34 = getelementptr inbounds nuw i8, ptr %3, i64 24
  %35 = load ptr, ptr %34, align 8, !tbaa !52
  %36 = tail call i32 (ptr, ptr, ...) @BIO_printf(ptr noundef %0, ptr noundef nonnull @.str.13, i32 noundef %2, ptr noundef nonnull @.str.2, ptr noundef nonnull %.str.12..str.11, ptr noundef %35) #5
  %37 = icmp slt i32 %36, 1
  br i1 %37, label %.loopexit, label %41

38:                                               ; preds = %30
  %39 = tail call i32 (ptr, ptr, ...) @BIO_printf(ptr noundef %0, ptr noundef nonnull @.str.14, i32 noundef %2, ptr noundef nonnull @.str.2, ptr noundef nonnull %.045) #5
  %40 = icmp slt i32 %39, 1
  br i1 %40, label %.loopexit, label %41

41:                                               ; preds = %32, %38, %29
  %42 = load ptr, ptr %.047, align 8, !tbaa !12
  %43 = tail call i32 @OPENSSL_sk_num(ptr noundef %42) #5
  %44 = icmp slt i32 %43, 1
  %45 = add nsw i32 %2, 2
  br i1 %44, label %._crit_edge.thread, label %.lr.ph

.lr.ph:                                           ; preds = %41
  %46 = getelementptr inbounds nuw i8, ptr %3, i64 32
  br label %47

47:                                               ; preds = %.lr.ph, %56
  %.04859 = phi i32 [ 0, %.lr.ph ], [ %57, %56 ]
  %.not56 = icmp eq i32 %.04859, 0
  br i1 %.not56, label %51, label %48

48:                                               ; preds = %47
  %49 = call i32 @BIO_puts(ptr noundef %0, ptr noundef nonnull @.str.3) #5
  %50 = icmp slt i32 %49, 1
  br i1 %50, label %.loopexit, label %51

51:                                               ; preds = %48, %47
  %52 = call ptr @OPENSSL_sk_value(ptr noundef %42, i32 noundef %.04859) #5
  store ptr %52, ptr %7, align 8, !tbaa !12
  %53 = load ptr, ptr %46, align 8, !tbaa !51
  %54 = call ptr %53() #5
  %55 = call fastcc i32 @asn1_item_print_ctx(ptr noundef %0, ptr noundef nonnull %7, i32 noundef %45, ptr noundef %54, ptr noundef null, ptr noundef null, i32 noundef 1, ptr noundef nonnull %4)
  %.not57 = icmp eq i32 %55, 0
  br i1 %.not57, label %.loopexit, label %56

56:                                               ; preds = %51
  %57 = add nuw nsw i32 %.04859, 1
  %58 = call i32 @OPENSSL_sk_num(ptr noundef %42) #5
  %59 = icmp slt i32 %57, %58
  br i1 %59, label %47, label %._crit_edge, !llvm.loop !53

._crit_edge.thread:                               ; preds = %41
  %60 = icmp eq ptr %42, null
  %61 = select i1 %60, ptr @.str.16, ptr @.str.17
  %62 = tail call i32 (ptr, ptr, ...) @BIO_printf(ptr noundef %0, ptr noundef nonnull @.str.15, i32 noundef %45, ptr noundef nonnull @.str.2, ptr noundef nonnull %61) #5
  %63 = icmp slt i32 %62, 1
  br i1 %63, label %.loopexit, label %._crit_edge

._crit_edge:                                      ; preds = %56, %._crit_edge.thread
  %64 = load i64, ptr %4, align 8, !tbaa !3
  %65 = and i64 %64, 2
  %.not55 = icmp eq i64 %65, 0
  br i1 %.not55, label %69, label %66

66:                                               ; preds = %._crit_edge
  %67 = call i32 (ptr, ptr, ...) @BIO_printf(ptr noundef %0, ptr noundef nonnull @.str.7, i32 noundef %2, ptr noundef nonnull @.str.2) #5
  %68 = icmp slt i32 %67, 1
  br i1 %68, label %.loopexit, label %69

69:                                               ; preds = %66, %._crit_edge
  br label %.loopexit

.loopexit:                                        ; preds = %51, %48, %66, %._crit_edge.thread, %38, %32, %69
  %.0 = phi i32 [ 1, %69 ], [ 0, %32 ], [ 0, %38 ], [ 0, %._crit_edge.thread ], [ 0, %66 ], [ 0, %48 ], [ 0, %51 ]
  call void @llvm.lifetime.end.p0(i64 8, ptr nonnull %7) #5
  br label %75

70:                                               ; preds = %27
  %71 = getelementptr inbounds nuw i8, ptr %3, i64 32
  %72 = load ptr, ptr %71, align 8, !tbaa !51
  %73 = tail call ptr %72() #5
  %74 = call fastcc i32 @asn1_item_print_ctx(ptr noundef %0, ptr noundef %.047, i32 noundef %2, ptr noundef %73, ptr noundef %.045, ptr noundef %.046, i32 noundef 0, ptr noundef nonnull %4)
  br label %75

75:                                               ; preds = %70, %.loopexit
  %.1 = phi i32 [ %.0, %.loopexit ], [ %74, %70 ]
  call void @llvm.lifetime.end.p0(i64 8, ptr nonnull %6) #5
  ret i32 %.1
}